target datalayout = "e-m:e-p270:32:32-p271:32:32-p272:64:64-i64:64-i128:128-f80:128-n8:16:32:64-S128"
target triple = "x86_64-pc-linux-gnu"

%struct.option = type { i32, i32, ptr, ptr, ptr, ptr, i32, ptr, i64, ptr, i64, ptr }

@.str.15 = private unnamed_addr constant [19 x i8] c"too many arguments\00", align 1
@the_repository = external global ptr, align 8
@git_notes_get_ref_usage = internal constant [2 x ptr] [ptr @.str.144, ptr null], align 16

; Function Attrs: inlinehint nounwind uwtable
define internal i32 @const_error() #3 {
  ret i32 -1
}

; Function Attrs: nounwind uwtable
define internal i32 @get_ref(i32 noundef %0, ptr noundef %1, ptr noundef %2, ptr noundef %3) #0 {
  %5 = alloca i32, align 4
  %6 = alloca ptr, align 8
  %7 = alloca ptr, align 8
  %8 = alloca ptr, align 8
  %9 = alloca [1 x %struct.option], align 16
  %10 = alloca ptr, align 8
  store i32 %0, ptr %5, align 4, !tbaa !4
  store ptr %1, ptr %6, align 8, !tbaa !8
  store ptr %2, ptr %7, align 8, !tbaa !11
  store ptr %3, ptr %8, align 8, !tbaa !13
  call void @llvm.lifetime.start.p0(i64 88, ptr %9) #11
  call void @llvm.memset.p0.i64(ptr align 16 %9, i8 0, i64 88, i1 false)
  call void @llvm.lifetime.start.p0(i64 8, ptr %10) #11
  %11 = load i32, ptr %5, align 4, !tbaa !4
  %12 = load ptr, ptr %6, align 8, !tbaa !8
  %13 = load ptr, ptr %7, align 8, !tbaa !11
  %14 = getelementptr inbounds [1 x %struct.option], ptr %9, i64 0, i64 0
  %15 = call i32 @parse_options(i32 noundef %11, ptr noundef %12, ptr noundef %13, ptr noundef %14, ptr noundef @git_notes_get_ref_usage, i32 noundef 0)
  store i32 %15, ptr %5, align 4, !tbaa !4
  %16 = load i32, ptr %5, align 4, !tbaa !4
  %17 = icmp ne i32 %16, 0
  br i1 %17, label %18, label %23

18:                                               ; preds = %4
  %19 = call ptr @_(ptr noundef @.str.15)
  %20 = call i32 (ptr, ...) @error(ptr noundef %19)
  %21 = call i32 @const_error()
  %22 = getelementptr inbounds [1 x %struct.option], ptr %9, i64 0, i64 0
  call void @usage_with_options(ptr noundef @git_notes_get_ref_usage, ptr noundef %22) #12
  unreachable

23:                                               ; preds = %4
  %24 = load ptr, ptr @the_repository, align 8, !tbaa !13
  %25 = call ptr @default_notes_ref(ptr noundef %24)
  store ptr %25, ptr %10, align 8, !tbaa !11
  %26 = load ptr, ptr %10, align 8, !tbaa !11
  %27 = call i32 @puts(ptr noundef %26)
  %28 = load ptr, ptr %10, align 8, !tbaa !11
  call void @free(ptr noundef %28) #11
  call void @llvm.lifetime.end.p0(i64 8, ptr %10) #11
  call void @llvm.lifetime.end.p0(i64 88, ptr %9) #11
  ret i32 0
}