; Function Attrs: nounwind uwtable
define internal noundef i32 @get_ref(i32 noundef %0, ptr noundef %1, ptr noundef %2, ptr readnone captures(none) %3) #0 {
  %5 = alloca [1 x %struct.option], align 16
  call void @llvm.lifetime.start.p0(i64 88, ptr nonnull %5) #16
  call void @llvm.memset.p0.i64(ptr noundef nonnull align 16 dereferenceable(88) %5, i8 0, i64 88, i1 false)
  %6 = call i32 @parse_options(i32 noundef %0, ptr noundef %1, ptr noundef %2, ptr noundef nonnull %5, ptr noundef nonnull @git_notes_get_ref_usage, i32 noundef 0) #16
  %.not = icmp eq i32 %6, 0
  br i1 %.not, label %10, label %7

7:                                                ; preds = %4
  %8 = call fastcc ptr @_(ptr noundef nonnull @.str.15)
  %9 = call i32 (ptr, ...) @error(ptr noundef %8) #16
  call void @usage_with_options(ptr noundef nonnull @git_notes_get_ref_usage, ptr noundef nonnull %5) #17
  unreachable

10:                                               ; preds = %4
  %11 = load ptr, ptr @the_repository, align 8, !tbaa !20
  %12 = call ptr @default_notes_ref(ptr noundef %11) #16
  %13 = call i32 @puts(ptr noundef nonnull dereferenceable(1) %12)
  call void @free(ptr noundef %12) #16
  call void @llvm.lifetime.end.p0(i64 88, ptr nonnull %5) #16
  ret i32 0
}